target datalayout = "e-m:e-p270:32:32-p271:32:32-p272:64:64-i64:64-i128:128-f80:128-n8:16:32:64-S128"
target triple = "x86_64-pc-linux-gnu"

%"struct.icu_77::units::Factor" = type { double, double, double, i8, [15 x i32] }

; Function Attrs: mustprogress uwtable
define void @_ZN6icu_775units6Factor11applyPrefixENS_14UMeasurePrefixE(ptr noundef nonnull align 8 dereferenceable(88) %0, i32 noundef %1) #1 align 2 {
  %3 = alloca ptr, align 8
  %4 = alloca i32, align 4
  %5 = alloca i32, align 4
  %6 = alloca double, align 8
  store ptr %0, ptr %3, align 8, !tbaa !23
  store i32 %1, ptr %4, align 4, !tbaa !41
  %7 = load ptr, ptr %3, align 8
  %8 = load i32, ptr %4, align 4, !tbaa !41
  %9 = icmp eq i32 %8, 30
  br i1 %9, label %10, label %11

10:                                               ; preds = %2
  br label %34

11:                                               ; preds = %2
  call void @llvm.lifetime.start.p0(i64 4, ptr %5) #12
  %12 = load i32, ptr %4, align 4, !tbaa !41
  %13 = call i32 @umeas_getPrefixPower_77(i32 noundef %12)
  store i32 %13, ptr %5, align 4, !tbaa !14
  call void @llvm.lifetime.start.p0(i64 8, ptr %6) #12
  %14 = load i32, ptr %4, align 4, !tbaa !41
  %15 = call i32 @umeas_getPrefixBase_77(i32 noundef %14)
  %16 = sitofp i32 %15 to double
  %17 = load i32, ptr %5, align 4, !tbaa !14
  %18 = call i32 @llvm.abs.i32(i32 %17, i1 true)
  %19 = sitofp i32 %18 to double
  %20 = call double @pow(double noundef %16, double noundef %19) #12, !tbaa !14
  store double %20, ptr %6, align 8, !tbaa !32
  %21 = load i32, ptr %5, align 4, !tbaa !14
  %22 = icmp sge i32 %21, 0
  br i1 %22, label %23, label %28

23:                                               ; preds = %11
  %24 = load double, ptr %6, align 8, !tbaa !32
  %25 = getelementptr inbounds nuw %"struct.icu_77::units::Factor", ptr %7, i32 0, i32 0
  %26 = load double, ptr %25, align 8, !tbaa !25
  %27 = fmul double %26, %24
  store double %27, ptr %25, align 8, !tbaa !25
  br label %33

28:                                               ; preds = %11
  %29 = load double, ptr %6, align 8, !tbaa !32
  %30 = getelementptr inbounds nuw %"struct.icu_77::units::Factor", ptr %7, i32 0, i32 1
  %31 = load double, ptr %30, align 8, !tbaa !29
  %32 = fmul double %31, %29
  store double %32, ptr %30, align 8, !tbaa !29
  br label %33

33:                                               ; preds = %28, %23
  call void @llvm.lifetime.end.p0(i64 8, ptr %6) #12
  call void @llvm.lifetime.end.p0(i64 4, ptr %5) #12
  br label %34

34:                                               ; preds = %33, %10
  ret void
}