; Function Attrs: mustprogress uwtable
define void @_ZN6icu_775units6Factor11applyPrefixENS_14UMeasurePrefixE(ptr noundef nonnull align 8 captures(none) dereferenceable(88) %0, i32 noundef %1) local_unnamed_addr #1 align 2 {
  %3 = icmp eq i32 %1, 30
  br i1 %3, label %19, label %4

4:                                                ; preds = %2
  %5 = tail call i32 @umeas_getPrefixPower_77(i32 noundef %1)
  %6 = tail call i32 @umeas_getPrefixBase_77(i32 noundef %1)
  %7 = sitofp i32 %6 to double
  %8 = tail call i32 @llvm.abs.i32(i32 %5, i1 true)
  %9 = uitofp nneg i32 %8 to double
  %10 = tail call double @pow(double noundef %7, double noundef %9) #21, !tbaa !12
  %11 = icmp sgt i32 %5, -1
  br i1 %11, label %12, label %15

12:                                               ; preds = %4
  %13 = load double, ptr %0, align 8, !tbaa !15
  %14 = fmul double %10, %13
  store double %14, ptr %0, align 8, !tbaa !15
  br label %19

15:                                               ; preds = %4
  %16 = getelementptr inbounds nuw i8, ptr %0, i64 8
  %17 = load double, ptr %16, align 8, !tbaa !19
  %18 = fmul double %10, %17
  store double %18, ptr %16, align 8, !tbaa !19
  br label %19

19:                                               ; preds = %12, %15, %2
  ret void
}